; Function Attrs: mustprogress nofree norecurse nosync nounwind willreturn memory(readwrite, inaccessiblemem: none) uwtable
define dso_local range(i32 -2, 1) i32 @cm_zlib_inflateReset(ptr noundef %0) local_unnamed_addr #0 {
  %2 = icmp eq ptr %0, null
  br i1 %2, label %cm_zlib_inflateResetKeep.exit, label %3

3:                                                ; preds = %1
  %4 = getelementptr inbounds nuw i8, ptr %0, i64 64
  %5 = load ptr, ptr %4, align 8
  %6 = icmp eq ptr %5, null
  br i1 %6, label %cm_zlib_inflateResetKeep.exit, label %7

7:                                                ; preds = %3
  %8 = getelementptr inbounds nuw i8, ptr %0, i64 72
  %9 = load ptr, ptr %8, align 8
  %10 = icmp eq ptr %9, null
  br i1 %10, label %cm_zlib_inflateResetKeep.exit, label %11

11:                                               ; preds = %7
  %12 = getelementptr inbounds nuw i8, ptr %0, i64 56
  %13 = load ptr, ptr %12, align 8
  %14 = icmp eq ptr %13, null
  br i1 %14, label %cm_zlib_inflateResetKeep.exit, label %15

15:                                               ; preds = %11
  %16 = load ptr, ptr %13, align 8
  %.not.i = icmp eq ptr %16, %0
  br i1 %.not.i, label %inflateStateCheck.exit, label %cm_zlib_inflateResetKeep.exit

inflateStateCheck.exit:                           ; preds = %15
  %17 = getelementptr inbounds nuw i8, ptr %13, i64 8
  %18 = load i32, ptr %17, align 8
  %19 = add i32 %18, -16180
  %or.cond.i = icmp ult i32 %19, 32
  br i1 %or.cond.i, label %20, label %cm_zlib_inflateResetKeep.exit

20:                                               ; preds = %inflateStateCheck.exit
  %21 = getelementptr inbounds nuw i8, ptr %13, i64 60
  store i32 0, ptr %21, align 4
  %22 = getelementptr inbounds nuw i8, ptr %13, i64 64
  store i32 0, ptr %22, align 8
  %23 = getelementptr inbounds nuw i8, ptr %13, i64 68
  store i32 0, ptr %23, align 4
  %24 = load ptr, ptr %4, align 8
  %25 = icmp eq ptr %24, null
  br i1 %25, label %cm_zlib_inflateResetKeep.exit, label %26

26:                                               ; preds = %20
  %27 = load ptr, ptr %8, align 8
  %28 = icmp eq ptr %27, null
  br i1 %28, label %cm_zlib_inflateResetKeep.exit, label %29

29:                                               ; preds = %26
  %30 = load ptr, ptr %12, align 8
  %31 = icmp eq ptr %30, null
  br i1 %31, label %cm_zlib_inflateResetKeep.exit, label %32

32:                                               ; preds = %29
  %33 = load ptr, ptr %30, align 8
  %.not.i.i = icmp eq ptr %33, %0
  br i1 %.not.i.i, label %inflateStateCheck.exit.i, label %cm_zlib_inflateResetKeep.exit

inflateStateCheck.exit.i:                         ; preds = %32
  %34 = getelementptr inbounds nuw i8, ptr %30, i64 8
  %35 = load i32, ptr %34, align 8
  %36 = add i32 %35, -16180
  %or.cond.i.i = icmp ult i32 %36, 32
  br i1 %or.cond.i.i, label %37, label %cm_zlib_inflateResetKeep.exit

37:                                               ; preds = %inflateStateCheck.exit.i
  %38 = getelementptr inbounds nuw i8, ptr %30, i64 40
  store i64 0, ptr %38, align 8
  %39 = getelementptr inbounds nuw i8, ptr %0, i64 40
  %40 = getelementptr inbounds nuw i8, ptr %0, i64 16
  store i64 0, ptr %40, align 8
  %41 = getelementptr inbounds nuw i8, ptr %30, i64 16
  tail call void @llvm.memset.p0.i64(ptr noundef nonnull align 8 dereferenceable(16) %39, i8 0, i64 16, i1 false)
  %42 = load i32, ptr %41, align 8
  %.not24.i = icmp eq i32 %42, 0
  br i1 %.not24.i, label %47, label %43

43:                                               ; preds = %37
  %44 = and i32 %42, 1
  %45 = zext nneg i32 %44 to i64
  %46 = getelementptr inbounds nuw i8, ptr %0, i64 96
  store i64 %45, ptr %46, align 8
  br label %47

47:                                               ; preds = %43, %37
  store i32 16180, ptr %34, align 8
  %48 = getelementptr inbounds nuw i8, ptr %30, i64 12
  store i32 0, ptr %48, align 4
  %49 = getelementptr inbounds nuw i8, ptr %30, i64 20
  store i32 0, ptr %49, align 4
  %50 = getelementptr inbounds nuw i8, ptr %30, i64 24
  store i32 -1, ptr %50, align 8
  %51 = getelementptr inbounds nuw i8, ptr %30, i64 28
  store i32 32768, ptr %51, align 4
  %52 = getelementptr inbounds nuw i8, ptr %30, i64 48
  store ptr null, ptr %52, align 8
  %53 = getelementptr inbounds nuw i8, ptr %30, i64 80
  store i64 0, ptr %53, align 8
  %54 = getelementptr inbounds nuw i8, ptr %30, i64 88
  store i32 0, ptr %54, align 8
  %55 = getelementptr inbounds nuw i8, ptr %30, i64 1368
  %56 = getelementptr inbounds nuw i8, ptr %30, i64 144
  store ptr %55, ptr %56, align 8
  %57 = getelementptr inbounds nuw i8, ptr %30, i64 112
  store ptr %55, ptr %57, align 8
  %58 = getelementptr inbounds nuw i8, ptr %30, i64 104
  store ptr %55, ptr %58, align 8
  %59 = getelementptr inbounds nuw i8, ptr %30, i64 7144
  store i32 1, ptr %59, align 8
  %60 = getelementptr inbounds nuw i8, ptr %30, i64 7148
  store i32 -1, ptr %60, align 4
  br label %cm_zlib_inflateResetKeep.exit

cm_zlib_inflateResetKeep.exit:                    ; preds = %11, %15, %1, %3, %7, %47, %inflateStateCheck.exit.i, %32, %29, %26, %20, %inflateStateCheck.exit
  %.0 = phi i32 [ -2, %inflateStateCheck.exit ], [ 0, %47 ], [ -2, %inflateStateCheck.exit.i ], [ -2, %26 ], [ -2, %20 ], [ -2, %32 ], [ -2, %29 ], [ -2, %7 ], [ -2, %3 ], [ -2, %1 ], [ -2, %15 ], [ -2, %11 ]
  ret i32 %.0
}